target datalayout = "e-m:e-p270:32:32-p271:32:32-p272:64:64-i64:64-i128:128-f80:128-n8:16:32:64-S128"
target triple = "x86_64-pc-linux-gnu"

@.str.121 = private unnamed_addr constant [1 x i8] zeroinitializer, align 1
@.str.151 = private unnamed_addr constant [8 x i8] c"%lf,%lf\00", align 1

; Function Attrs: nounwind uwtable
define internal ptr @xyOf(ptr noundef %0, ptr noundef %1, i1 noundef zeroext %2) #0 {
  %4 = alloca ptr, align 8
  %5 = alloca ptr, align 8
  %6 = alloca i8, align 1
  %7 = alloca double, align 8
  %8 = alloca double, align 8
  %9 = alloca ptr, align 8
  %10 = alloca ptr, align 8
  %11 = alloca i64, align 8
  store ptr %0, ptr %4, align 8, !tbaa !74
  store ptr %1, ptr %5, align 8, !tbaa !7
  %12 = zext i1 %2 to i8
  store i8 %12, ptr %6, align 1, !tbaa !9
  call void @llvm.lifetime.start.p0(i64 8, ptr %7) #16
  call void @llvm.lifetime.start.p0(i64 8, ptr %8) #16
  call void @llvm.lifetime.start.p0(i64 8, ptr %9) #16
  call void @llvm.lifetime.start.p0(i64 8, ptr %10) #16
  %13 = load ptr, ptr %5, align 8, !tbaa !7
  %14 = call i32 (ptr, ptr, ...) @__isoc99_sscanf(ptr noundef %13, ptr noundef @.str.151, ptr noundef %7, ptr noundef %8) #16
  %15 = icmp eq i32 %14, 2
  br i1 %15, label %16, label %44

16:                                               ; preds = %3
  %17 = load ptr, ptr %5, align 8, !tbaa !7
  %18 = call ptr @strchr(ptr noundef %17, i32 noundef 44) #20
  store ptr %18, ptr %10, align 8, !tbaa !7
  %19 = load i8, ptr %6, align 1, !tbaa !9, !range !35, !noundef !36
  %20 = trunc i8 %19 to i1
  br i1 %20, label %21, label %38

21:                                               ; preds = %16
  call void @llvm.lifetime.start.p0(i64 8, ptr %11) #16
  %22 = load ptr, ptr %10, align 8, !tbaa !7
  %23 = load ptr, ptr %5, align 8, !tbaa !7
  %24 = ptrtoint ptr %22 to i64
  %25 = ptrtoint ptr %23 to i64
  %26 = sub i64 %24, %25
  store i64 %26, ptr %11, align 8, !tbaa !34
  %27 = load ptr, ptr %4, align 8, !tbaa !74
  %28 = load i64, ptr %11, align 8, !tbaa !34
  %29 = add i64 %28, 1
  %30 = call ptr @exstralloc(ptr noundef %27, i64 noundef %29)
  store ptr %30, ptr %9, align 8, !tbaa !7
  %31 = load ptr, ptr %9, align 8, !tbaa !7
  %32 = load ptr, ptr %5, align 8, !tbaa !7
  %33 = load i64, ptr %11, align 8, !tbaa !34
  %34 = call ptr @strncpy(ptr noundef %31, ptr noundef %32, i64 noundef %33) #16
  %35 = load ptr, ptr %9, align 8, !tbaa !7
  %36 = load i64, ptr %11, align 8, !tbaa !34
  %37 = getelementptr inbounds nuw i8, ptr %35, i64 %36
  store i8 0, ptr %37, align 1, !tbaa !97
  call void @llvm.lifetime.end.p0(i64 8, ptr %11) #16
  br label %43

38:                                               ; preds = %16
  %39 = load ptr, ptr %4, align 8, !tbaa !74
  %40 = load ptr, ptr %10, align 8, !tbaa !7
  %41 = getelementptr inbounds i8, ptr %40, i64 1
  %42 = call ptr @exstring(ptr noundef %39, ptr noundef %41)
  store ptr %42, ptr %9, align 8, !tbaa !7
  br label %43

43:                                               ; preds = %38, %21
  br label %45

44:                                               ; preds = %3
  store ptr @.str.121, ptr %9, align 8, !tbaa !7
  br label %45

45:                                               ; preds = %44, %43
  %46 = load ptr, ptr %9, align 8, !tbaa !7
  call void @llvm.lifetime.end.p0(i64 8, ptr %10) #16
  call void @llvm.lifetime.end.p0(i64 8, ptr %9) #16
  call void @llvm.lifetime.end.p0(i64 8, ptr %8) #16
  call void @llvm.lifetime.end.p0(i64 8, ptr %7) #16
  ret ptr %46
}