; Function Attrs: nounwind uwtable
define internal fastcc ptr @xyOf(ptr noundef %0, ptr noundef %1, i1 noundef zeroext %2) unnamed_addr #0 {
  %4 = alloca double, align 8
  %5 = alloca double, align 8
  call void @llvm.lifetime.start.p0(i64 8, ptr nonnull %4) #25
  call void @llvm.lifetime.start.p0(i64 8, ptr nonnull %5) #25
  %6 = call i32 (ptr, ptr, ...) @__isoc99_sscanf(ptr noundef %1, ptr noundef nonnull @.str.151, ptr noundef nonnull %4, ptr noundef nonnull %5) #25
  %7 = icmp eq i32 %6, 2
  br i1 %7, label %8, label %21

8:                                                ; preds = %3
  %9 = call ptr @strchr(ptr noundef nonnull dereferenceable(1) %1, i32 noundef 44) #28
  br i1 %2, label %10, label %18

10:                                               ; preds = %8
  %11 = ptrtoint ptr %9 to i64
  %12 = ptrtoint ptr %1 to i64
  %13 = sub i64 %11, %12
  %14 = add i64 %13, 1
  %15 = call ptr @exstralloc(ptr noundef %0, i64 noundef %14) #25
  %16 = call ptr @strncpy(ptr noundef %15, ptr noundef nonnull %1, i64 noundef %13) #25
  %17 = getelementptr inbounds nuw i8, ptr %15, i64 %13
  store i8 0, ptr %17, align 1, !tbaa !65
  br label %21

18:                                               ; preds = %8
  %19 = getelementptr inbounds nuw i8, ptr %9, i64 1
  %20 = call ptr @exstring(ptr noundef %0, ptr noundef nonnull %19) #25
  br label %21

21:                                               ; preds = %3, %10, %18
  %.0 = phi ptr [ %15, %10 ], [ %20, %18 ], [ @.str.121, %3 ]
  call void @llvm.lifetime.end.p0(i64 8, ptr nonnull %5) #25
  call void @llvm.lifetime.end.p0(i64 8, ptr nonnull %4) #25
  ret ptr %.0
}